target datalayout = "e-m:e-p270:32:32-p271:32:32-p272:64:64-i64:64-i128:128-f80:128-n8:16:32:64-S128"
target triple = "x86_64-unknown-linux-gnu"

%struct.ssl_st = type { i32, i16, i16, ptr, ptr, ptr, ptr, ptr, i32, i32, ptr, ptr, i32, i32, ptr, ptr, ptr, ptr, ptr, ptr, ptr, ptr, i32, i32, [32 x i8], ptr, ptr, ptr, ptr, ptr, ptr, ptr, i64, %struct.crypto_ex_data_st, ptr, i32, i32, i32, i32, i16, ptr, i32, i64, ptr, ptr, ptr, ptr, ptr, ptr, i32, i32, ptr, ptr, i8, i8, i32 }
%struct.crypto_ex_data_st = type { ptr }
%struct.ssl3_state_st = type { [8 x i8], [8 x i8], [32 x i8], [32 x i8], i8, i8, %struct.ssl3_buffer_st, %struct.ssl3_buffer_st, %struct.ssl3_record_st, i8, i32, i32, i32, i32, ptr, ptr, %struct.env_md_ctx_st, %struct.env_md_ctx_st, i8, i32, [2 x i8], i32, i8, i8, ptr, ptr, ptr, %struct.anon, [64 x i8], i8, [64 x i8], i8, i32, i32, ptr, i64, ptr, i64, i8, [64 x i8] }
%struct.ssl3_buffer_st = type { ptr, i16, i16, i16 }
%struct.ssl3_record_st = type { i8, i16, ptr }
%struct.env_md_ctx_st = type { ptr, ptr, ptr, ptr }
%struct.anon = type { [64 x i8], i32, [64 x i8], i32, i64, i32, ptr, i32, i32, %union.anon, %union.anon.0, i8, i32, ptr, ptr, i64, ptr, i8, i8, i8, i8, i32, i8, ptr, i64, i8, ptr, i8, i8, i8, %struct.ssl_ecdh_ctx_st, ptr, i16 }
%union.anon = type { i32 }
%union.anon.0 = type { i16 }
%struct.ssl_ecdh_ctx_st = type { ptr, ptr }

; Function Attrs: nounwind uwtable
define hidden void @ssl3_free(ptr noundef %ssl) #0 {
entry:
  %ssl.addr = alloca ptr, align 8
  store ptr %ssl, ptr %ssl.addr, align 8
  %0 = load ptr, ptr %ssl.addr, align 8
  %cmp = icmp eq ptr %0, null
  br i1 %cmp, label %if.then, label %lor.lhs.false

lor.lhs.false:                                    ; preds = %entry
  %1 = load ptr, ptr %ssl.addr, align 8
  %s3 = getelementptr inbounds %struct.ssl_st, ptr %1, i32 0, i32 14
  %2 = load ptr, ptr %s3, align 8
  %cmp1 = icmp eq ptr %2, null
  br i1 %cmp1, label %if.then, label %if.end

if.then:                                          ; preds = %lor.lhs.false, %entry
  br label %return

if.end:                                           ; preds = %lor.lhs.false
  %3 = load ptr, ptr %ssl.addr, align 8
  call void @ssl3_cleanup_key_block(ptr noundef %3)
  %4 = load ptr, ptr %ssl.addr, align 8
  call void @ssl_read_buffer_clear(ptr noundef %4)
  %5 = load ptr, ptr %ssl.addr, align 8
  call void @ssl_write_buffer_clear(ptr noundef %5)
  %6 = load ptr, ptr %ssl.addr, align 8
  %s32 = getelementptr inbounds %struct.ssl_st, ptr %6, i32 0, i32 14
  %7 = load ptr, ptr %s32, align 8
  %tmp = getelementptr inbounds %struct.ssl3_state_st, ptr %7, i32 0, i32 27
  %ecdh_ctx = getelementptr inbounds %struct.anon, ptr %tmp, i32 0, i32 30
  call void @SSL_ECDH_CTX_cleanup(ptr noundef %ecdh_ctx)
  %8 = load ptr, ptr %ssl.addr, align 8
  %s33 = getelementptr inbounds %struct.ssl_st, ptr %8, i32 0, i32 14
  %9 = load ptr, ptr %s33, align 8
  %tmp4 = getelementptr inbounds %struct.ssl3_state_st, ptr %9, i32 0, i32 27
  %peer_key = getelementptr inbounds %struct.anon, ptr %tmp4, i32 0, i32 31
  %10 = load ptr, ptr %peer_key, align 8
  call void @free(ptr noundef %10) #8
  %11 = load ptr, ptr %ssl.addr, align 8
  %s35 = getelementptr inbounds %struct.ssl_st, ptr %11, i32 0, i32 14
  %12 = load ptr, ptr %s35, align 8
  %tmp6 = getelementptr inbounds %struct.ssl3_state_st, ptr %12, i32 0, i32 27
  %ca_names = getelementptr inbounds %struct.anon, ptr %tmp6, i32 0, i32 13
  %13 = load ptr, ptr %ca_names, align 8
  call void @sk_pop_free(ptr noundef %13, ptr noundef @X509_NAME_free)
  %14 = load ptr, ptr %ssl.addr, align 8
  %s37 = getelementptr inbounds %struct.ssl_st, ptr %14, i32 0, i32 14
  %15 = load ptr, ptr %s37, align 8
  %tmp8 = getelementptr inbounds %struct.ssl3_state_st, ptr %15, i32 0, i32 27
  %certificate_types = getelementptr inbounds %struct.anon, ptr %tmp8, i32 0, i32 14
  %16 = load ptr, ptr %certificate_types, align 8
  call void @free(ptr noundef %16) #8
  %17 = load ptr, ptr %ssl.addr, align 8
  %s39 = getelementptr inbounds %struct.ssl_st, ptr %17, i32 0, i32 14
  %18 = load ptr, ptr %s39, align 8
  %tmp10 = getelementptr inbounds %struct.ssl3_state_st, ptr %18, i32 0, i32 27
  %peer_ellipticcurvelist = getelementptr inbounds %struct.anon, ptr %tmp10, i32 0, i32 23
  %19 = load ptr, ptr %peer_ellipticcurvelist, align 8
  call void @free(ptr noundef %19) #8
  %20 = load ptr, ptr %ssl.addr, align 8
  %s311 = getelementptr inbounds %struct.ssl_st, ptr %20, i32 0, i32 14
  %21 = load ptr, ptr %s311, align 8
  %tmp12 = getelementptr inbounds %struct.ssl3_state_st, ptr %21, i32 0, i32 27
  %peer_psk_identity_hint = getelementptr inbounds %struct.anon, ptr %tmp12, i32 0, i32 26
  %22 = load ptr, ptr %peer_psk_identity_hint, align 8
  call void @free(ptr noundef %22) #8
  %23 = load ptr, ptr %ssl.addr, align 8
  call void @ssl3_free_handshake_buffer(ptr noundef %23)
  %24 = load ptr, ptr %ssl.addr, align 8
  call void @ssl3_free_handshake_hash(ptr noundef %24)
  %25 = load ptr, ptr %ssl.addr, align 8
  %s313 = getelementptr inbounds %struct.ssl_st, ptr %25, i32 0, i32 14
  %26 = load ptr, ptr %s313, align 8
  %next_proto_negotiated = getelementptr inbounds %struct.ssl3_state_st, ptr %26, i32 0, i32 34
  %27 = load ptr, ptr %next_proto_negotiated, align 8
  call void @free(ptr noundef %27) #8
  %28 = load ptr, ptr %ssl.addr, align 8
  %s314 = getelementptr inbounds %struct.ssl_st, ptr %28, i32 0, i32 14
  %29 = load ptr, ptr %s314, align 8
  %alpn_selected = getelementptr inbounds %struct.ssl3_state_st, ptr %29, i32 0, i32 36
  %30 = load ptr, ptr %alpn_selected, align 8
  call void @free(ptr noundef %30) #8
  %31 = load ptr, ptr %ssl.addr, align 8
  %s315 = getelementptr inbounds %struct.ssl_st, ptr %31, i32 0, i32 14
  %32 = load ptr, ptr %s315, align 8
  %aead_read_ctx = getelementptr inbounds %struct.ssl3_state_st, ptr %32, i32 0, i32 24
  %33 = load ptr, ptr %aead_read_ctx, align 8
  call void @SSL_AEAD_CTX_free(ptr noundef %33)
  %34 = load ptr, ptr %ssl.addr, align 8
  %s316 = getelementptr inbounds %struct.ssl_st, ptr %34, i32 0, i32 14
  %35 = load ptr, ptr %s316, align 8
  %aead_write_ctx = getelementptr inbounds %struct.ssl3_state_st, ptr %35, i32 0, i32 25
  %36 = load ptr, ptr %aead_write_ctx, align 8
  call void @SSL_AEAD_CTX_free(ptr noundef %36)
  %37 = load ptr, ptr %ssl.addr, align 8
  %s317 = getelementptr inbounds %struct.ssl_st, ptr %37, i32 0, i32 14
  %38 = load ptr, ptr %s317, align 8
  call void @OPENSSL_cleanse(ptr noundef %38, i64 noundef 840)
  %39 = load ptr, ptr %ssl.addr, align 8
  %s318 = getelementptr inbounds %struct.ssl_st, ptr %39, i32 0, i32 14
  %40 = load ptr, ptr %s318, align 8
  call void @free(ptr noundef %40) #8
  %41 = load ptr, ptr %ssl.addr, align 8
  %s319 = getelementptr inbounds %struct.ssl_st, ptr %41, i32 0, i32 14
  store ptr null, ptr %s319, align 8
  br label %return

return:                                           ; preds = %if.end, %if.then
  ret void
}