; Function Attrs: nounwind uwtable
define hidden void @ssl3_free(ptr noundef %ssl) local_unnamed_addr #1 {
entry:
  %cmp = icmp eq ptr %ssl, null
  br i1 %cmp, label %return, label %lor.lhs.false

lor.lhs.false:                                    ; preds = %entry
  %s3 = getelementptr inbounds nuw i8, ptr %ssl, i64 80
  %0 = load ptr, ptr %s3, align 8
  %cmp1 = icmp eq ptr %0, null
  br i1 %cmp1, label %return, label %if.end

if.end:                                           ; preds = %lor.lhs.false
  tail call void @ssl3_cleanup_key_block(ptr noundef nonnull %ssl) #14
  tail call void @ssl_read_buffer_clear(ptr noundef nonnull %ssl) #14
  tail call void @ssl_write_buffer_clear(ptr noundef nonnull %ssl) #14
  %1 = load ptr, ptr %s3, align 8
  %ecdh_ctx = getelementptr inbounds nuw i8, ptr %1, i64 560
  tail call void @SSL_ECDH_CTX_cleanup(ptr noundef nonnull %ecdh_ctx) #14
  %2 = load ptr, ptr %s3, align 8
  %peer_key = getelementptr inbounds nuw i8, ptr %2, i64 576
  %3 = load ptr, ptr %peer_key, align 8
  tail call void @free(ptr noundef %3) #14
  %4 = load ptr, ptr %s3, align 8
  %ca_names = getelementptr inbounds nuw i8, ptr %4, i64 472
  %5 = load ptr, ptr %ca_names, align 8
  tail call void @sk_pop_free(ptr noundef %5, ptr noundef nonnull @X509_NAME_free) #14
  %6 = load ptr, ptr %s3, align 8
  %certificate_types = getelementptr inbounds nuw i8, ptr %6, i64 480
  %7 = load ptr, ptr %certificate_types, align 8
  tail call void @free(ptr noundef %7) #14
  %8 = load ptr, ptr %s3, align 8
  %peer_ellipticcurvelist = getelementptr inbounds nuw i8, ptr %8, i64 520
  %9 = load ptr, ptr %peer_ellipticcurvelist, align 8
  tail call void @free(ptr noundef %9) #14
  %10 = load ptr, ptr %s3, align 8
  %peer_psk_identity_hint = getelementptr inbounds nuw i8, ptr %10, i64 544
  %11 = load ptr, ptr %peer_psk_identity_hint, align 8
  tail call void @free(ptr noundef %11) #14
  tail call void @ssl3_free_handshake_buffer(ptr noundef nonnull %ssl) #14
  tail call void @ssl3_free_handshake_hash(ptr noundef nonnull %ssl) #14
  %12 = load ptr, ptr %s3, align 8
  %next_proto_negotiated = getelementptr inbounds nuw i8, ptr %12, i64 736
  %13 = load ptr, ptr %next_proto_negotiated, align 8
  tail call void @free(ptr noundef %13) #14
  %14 = load ptr, ptr %s3, align 8
  %alpn_selected = getelementptr inbounds nuw i8, ptr %14, i64 752
  %15 = load ptr, ptr %alpn_selected, align 8
  tail call void @free(ptr noundef %15) #14
  %16 = load ptr, ptr %s3, align 8
  %aead_read_ctx = getelementptr inbounds nuw i8, ptr %16, i64 264
  %17 = load ptr, ptr %aead_read_ctx, align 8
  tail call void @SSL_AEAD_CTX_free(ptr noundef %17) #14
  %18 = load ptr, ptr %s3, align 8
  %aead_write_ctx = getelementptr inbounds nuw i8, ptr %18, i64 272
  %19 = load ptr, ptr %aead_write_ctx, align 8
  tail call void @SSL_AEAD_CTX_free(ptr noundef %19) #14
  %20 = load ptr, ptr %s3, align 8
  tail call void @OPENSSL_cleanse(ptr noundef %20, i64 noundef 840) #14
  %21 = load ptr, ptr %s3, align 8
  tail call void @free(ptr noundef %21) #14
  store ptr null, ptr %s3, align 8
  br label %return

return:                                           ; preds = %entry, %lor.lhs.false, %if.end
  ret void
}